target datalayout = "e-m:e-p270:32:32-p271:32:32-p272:64:64-i64:64-i128:128-f80:128-n8:16:32:64-S128"
target triple = "x86_64-pc-linux-gnu"

%struct.ident_t = type { i32, i32, i32, i32, ptr }
%class.SortedTreeNodes = type { ptr, i32, ptr }
%class.Octree = type <{ ptr, ptr, %class.SortedTreeNodes, i32, i32, i32, [4 x i8], double, double, i32, [4 x i8] }>
%struct.DenseNodeData = type { i64, ptr }

@1 = private unnamed_addr constant %struct.ident_t { i32 0, i32 514, i32 0, i32 22, ptr @0 }, align 8

; Function Attrs: mustprogress nounwind uwtable
define linkonce_odr noundef i32 @_ZNK15SortedTreeNodes3endEi(ptr noundef nonnull align 8 dereferenceable(24) %0, i32 noundef %1) #4 comdat align 2 {
  %3 = alloca ptr, align 8
  %4 = alloca i32, align 4
  store ptr %0, ptr %3, align 8
  store i32 %1, ptr %4, align 4
  %5 = load ptr, ptr %3, align 8
  %6 = getelementptr inbounds %class.SortedTreeNodes, ptr %5, i32 0, i32 0
  %7 = load ptr, ptr %6, align 8
  %8 = load i32, ptr %4, align 4
  %9 = sext i32 %8 to i64
  %10 = getelementptr inbounds ptr, ptr %7, i64 %9
  %11 = load ptr, ptr %10, align 8
  %12 = load i32, ptr %4, align 4
  %13 = zext i32 %12 to i64
  %14 = shl i64 1, %13
  %15 = getelementptr inbounds i32, ptr %11, i64 %14
  %16 = load i32, ptr %15, align 4
  ret i32 %16
}

; Function Attrs: mustprogress nounwind uwtable
define linkonce_odr noundef i32 @_ZNK15SortedTreeNodes5beginEi(ptr noundef nonnull align 8 dereferenceable(24) %0, i32 noundef %1) #4 comdat align 2 {
  %3 = alloca ptr, align 8
  %4 = alloca i32, align 4
  store ptr %0, ptr %3, align 8
  store i32 %1, ptr %4, align 4
  %5 = load ptr, ptr %3, align 8
  %6 = getelementptr inbounds %class.SortedTreeNodes, ptr %5, i32 0, i32 0
  %7 = load ptr, ptr %6, align 8
  %8 = load i32, ptr %4, align 4
  %9 = sext i32 %8 to i64
  %10 = getelementptr inbounds ptr, ptr %7, i64 %9
  %11 = load ptr, ptr %10, align 8
  %12 = getelementptr inbounds i32, ptr %11, i64 0
  %13 = load i32, ptr %12, align 4
  ret i32 %13
}

; Function Attrs: mustprogress nounwind uwtable
define linkonce_odr noundef i32 @_ZNK6OctreeIfE14_localToGlobalEi(ptr noundef nonnull align 8 dereferenceable(76) %0, i32 noundef %1) #4 comdat align 2 {
  %3 = alloca ptr, align 8
  %4 = alloca i32, align 4
  store ptr %0, ptr %3, align 8
  store i32 %1, ptr %4, align 4
  %5 = load ptr, ptr %3, align 8
  %6 = load i32, ptr %4, align 4
  %7 = getelementptr inbounds %class.Octree, ptr %5, i32 0, i32 5
  %8 = load i32, ptr %7, align 8
  %9 = add nsw i32 %6, %8
  ret i32 %9
}

; Function Attrs: noreturn nounwind uwtable
define linkonce_odr hidden void @__clang_call_terminate(ptr noundef %0) #9 comdat {
  %2 = call ptr @__cxa_begin_catch(ptr %0) #3
  call void @_ZSt9terminatev() #27
  unreachable
}

; Function Attrs: mustprogress nounwind uwtable
define linkonce_odr noundef nonnull align 4 dereferenceable(4) ptr @_ZN13DenseNodeDataIfLi2EEixEi(ptr noundef nonnull align 8 dereferenceable(16) %0, i32 noundef %1) #4 comdat align 2 {
  %3 = alloca ptr, align 8
  %4 = alloca i32, align 4
  store ptr %0, ptr %3, align 8
  store i32 %1, ptr %4, align 4
  %5 = load ptr, ptr %3, align 8
  %6 = getelementptr inbounds %struct.DenseNodeData, ptr %5, i32 0, i32 1
  %7 = load ptr, ptr %6, align 8
  %8 = load i32, ptr %4, align 4
  %9 = sext i32 %8 to i64
  %10 = getelementptr inbounds float, ptr %7, i64 %9
  ret ptr %10
}

; Function Attrs: mustprogress uwtable
define linkonce_odr noundef i32 @_ZNK6OctreeIfE10_sNodesEndEi(ptr noundef nonnull align 8 dereferenceable(76) %0, i32 noundef %1) #5 comdat align 2 {
  %3 = alloca ptr, align 8
  %4 = alloca i32, align 4
  store ptr %0, ptr %3, align 8
  store i32 %1, ptr %4, align 4
  %5 = load ptr, ptr %3, align 8
  %6 = getelementptr inbounds %class.Octree, ptr %5, i32 0, i32 2
  %7 = load i32, ptr %4, align 4
  %8 = call noundef i32 @_ZNK6OctreeIfE14_localToGlobalEi(ptr noundef nonnull align 8 dereferenceable(76) %5, i32 noundef %7)
  %9 = call noundef i32 @_ZNK15SortedTreeNodes3endEi(ptr noundef nonnull align 8 dereferenceable(24) %6, i32 noundef %8)
  ret i32 %9
}

; Function Attrs: mustprogress uwtable
define linkonce_odr noundef i32 @_ZNK6OctreeIfE12_sNodesBeginEi(ptr noundef nonnull align 8 dereferenceable(76) %0, i32 noundef %1) #5 comdat align 2 {
  %3 = alloca ptr, align 8
  %4 = alloca i32, align 4
  store ptr %0, ptr %3, align 8
  store i32 %1, ptr %4, align 4
  %5 = load ptr, ptr %3, align 8
  %6 = getelementptr inbounds %class.Octree, ptr %5, i32 0, i32 2
  %7 = load i32, ptr %4, align 4
  %8 = call noundef i32 @_ZNK6OctreeIfE14_localToGlobalEi(ptr noundef nonnull align 8 dereferenceable(76) %5, i32 noundef %7)
  %9 = call noundef i32 @_ZNK15SortedTreeNodes5beginEi(ptr noundef nonnull align 8 dereferenceable(24) %6, i32 noundef %8)
  ret i32 %9
}

; Function Attrs: norecurse nounwind uwtable
define internal void @_ZN6OctreeIfE14_solveSystemCGILi2EL12BoundaryType2E16FEMSystemFunctorILi2ELS2_2EELb0EEEiRKT1_RK11BSplineDataIXT_EXT0_EEPNS0_17InterpolationInfoIXT2_EEEiR13DenseNodeDataIfXT_EESH_SH_ibRNS0_12_SolverStatsEbd.omp_outlined(ptr noalias noundef %0, ptr noalias noundef %1, ptr noundef %2, ptr noundef nonnull align 4 dereferenceable(4) %3, ptr noundef nonnull align 8 dereferenceable(16) %4, ptr noundef nonnull align 8 dereferenceable(16) %5) #17 personality ptr @__gxx_personality_v0 {
  %7 = alloca ptr, align 8
  %8 = alloca ptr, align 8
  %9 = alloca ptr, align 8
  %10 = alloca ptr, align 8
  %11 = alloca ptr, align 8
  %12 = alloca ptr, align 8
  %13 = alloca ptr, align 8
  %14 = alloca ptr, align 8
  %15 = alloca i32, align 4
  %16 = alloca i32, align 4
  %17 = alloca i32, align 4
  %18 = alloca i32, align 4
  %19 = alloca i32, align 4
  %20 = alloca i32, align 4
  %21 = alloca i32, align 4
  %22 = alloca i32, align 4
  %23 = alloca i32, align 4
  %24 = alloca i32, align 4
  store ptr %0, ptr %7, align 8
  store ptr %1, ptr %8, align 8
  store ptr %2, ptr %9, align 8
  store ptr %3, ptr %10, align 8
  store ptr %4, ptr %11, align 8
  store ptr %5, ptr %12, align 8
  %25 = load ptr, ptr %9, align 8
  %26 = load ptr, ptr %10, align 8
  %27 = load ptr, ptr %11, align 8
  %28 = load ptr, ptr %12, align 8
  store ptr %27, ptr %13, align 8
  store ptr %28, ptr %14, align 8
  %29 = load i32, ptr %26, align 4
  %30 = sub nsw i32 %29, 1
  %31 = invoke noundef i32 @_ZNK6OctreeIfE12_sNodesBeginEi(ptr noundef nonnull align 8 dereferenceable(76) %25, i32 noundef %30)
          to label %32 unwind label %90

32:                                               ; preds = %6
  store i32 %31, ptr %16, align 4
  %33 = load i32, ptr %26, align 4
  %34 = sub nsw i32 %33, 1
  %35 = invoke noundef i32 @_ZNK6OctreeIfE10_sNodesEndEi(ptr noundef nonnull align 8 dereferenceable(76) %25, i32 noundef %34)
          to label %36 unwind label %90

36:                                               ; preds = %32
  store i32 %35, ptr %17, align 4
  %37 = load i32, ptr %17, align 4
  %38 = load i32, ptr %16, align 4
  %39 = sub i32 %37, %38
  %40 = sub i32 %39, 1
  %41 = add i32 %40, 1
  %42 = udiv i32 %41, 1
  %43 = sub i32 %42, 1
  store i32 %43, ptr %18, align 4
  %44 = load i32, ptr %16, align 4
  store i32 %44, ptr %19, align 4
  %45 = load i32, ptr %16, align 4
  %46 = load i32, ptr %17, align 4
  %47 = icmp slt i32 %45, %46
  br i1 %47, label %48, label %89

48:                                               ; preds = %36
  store i32 0, ptr %20, align 4
  %49 = load i32, ptr %18, align 4
  store i32 %49, ptr %21, align 4
  store i32 1, ptr %22, align 4
  store i32 0, ptr %23, align 4
  %50 = load ptr, ptr %7, align 8
  %51 = load i32, ptr %50, align 4
  call void @__kmpc_for_static_init_4u(ptr @1, i32 %51, i32 34, ptr %23, ptr %20, ptr %21, ptr %22, i32 1, i32 1)
  %52 = load i32, ptr %21, align 4
  %53 = load i32, ptr %18, align 4
  %54 = icmp ugt i32 %52, %53
  br i1 %54, label %55, label %57

55:                                               ; preds = %48
  %56 = load i32, ptr %18, align 4
  br label %59

57:                                               ; preds = %48
  %58 = load i32, ptr %21, align 4
  br label %59

59:                                               ; preds = %57, %55
  %60 = phi i32 [ %56, %55 ], [ %58, %57 ]
  store i32 %60, ptr %21, align 4
  %61 = load i32, ptr %20, align 4
  store i32 %61, ptr %15, align 4
  br label %62

62:                                               ; preds = %82, %59
  %63 = load i32, ptr %15, align 4
  %64 = load i32, ptr %21, align 4
  %65 = add i32 %64, 1
  %66 = icmp ult i32 %63, %65
  br i1 %66, label %67, label %85

67:                                               ; preds = %62
  %68 = load i32, ptr %16, align 4
  %69 = load i32, ptr %15, align 4
  %70 = mul i32 %69, 1
  %71 = add i32 %68, %70
  store i32 %71, ptr %24, align 4
  %72 = load ptr, ptr %14, align 8
  %73 = load i32, ptr %24, align 4
  %74 = call noundef nonnull align 4 dereferenceable(4) ptr @_ZN13DenseNodeDataIfLi2EEixEi(ptr noundef nonnull align 8 dereferenceable(16) %72, i32 noundef %73)
  %75 = load float, ptr %74, align 4
  %76 = load ptr, ptr %13, align 8
  %77 = load i32, ptr %24, align 4
  %78 = call noundef nonnull align 4 dereferenceable(4) ptr @_ZN13DenseNodeDataIfLi2EEixEi(ptr noundef nonnull align 8 dereferenceable(16) %76, i32 noundef %77)
  %79 = load float, ptr %78, align 4
  %80 = fadd float %79, %75
  store float %80, ptr %78, align 4
  br label %81

81:                                               ; preds = %67
  br label %82

82:                                               ; preds = %81
  %83 = load i32, ptr %15, align 4
  %84 = add i32 %83, 1
  store i32 %84, ptr %15, align 4
  br label %62

85:                                               ; preds = %62
  br label %86

86:                                               ; preds = %85
  %87 = load ptr, ptr %7, align 8
  %88 = load i32, ptr %87, align 4
  call void @__kmpc_for_static_fini(ptr @1, i32 %88)
  br label %89

89:                                               ; preds = %86, %36
  ret void

90:                                               ; preds = %32, %6
  %91 = landingpad { ptr, i32 }
          catch ptr null
  %92 = extractvalue { ptr, i32 } %91, 0
  call void @__clang_call_terminate(ptr %92) #27
  unreachable
}